; Function Attrs: mustprogress nofree norecurse nosync nounwind willreturn memory(argmem: readwrite) uwtable
define i32 @png_get_unknown_chunks(ptr noalias noundef readnone %0, ptr noalias noundef readonly %1, ptr noundef writeonly %2) local_unnamed_addr #3 {
  %4 = icmp ne ptr %0, null
  %5 = icmp ne ptr %1, null
  %or.cond = and i1 %4, %5
  %6 = icmp ne ptr %2, null
  %or.cond3 = and i1 %or.cond, %6
  br i1 %or.cond3, label %7, label %12

7:                                                ; preds = %3
  %8 = getelementptr inbounds i8, ptr %1, i64 304
  %9 = load ptr, ptr %8, align 8
  store ptr %9, ptr %2, align 8
  %10 = getelementptr inbounds i8, ptr %1, i64 312
  %11 = load i32, ptr %10, align 8
  br label %12

12:                                               ; preds = %3, %7
  %.0 = phi i32 [ %11, %7 ], [ 0, %3 ]
  ret i32 %.0
}